target datalayout = "e-m:e-p270:32:32-p271:32:32-p272:64:64-i64:64-i128:128-f80:128-n8:16:32:64-S128"
target triple = "x86_64-pc-linux-gnu"

%class.QString = type { %struct.QArrayDataPointer }
%struct.QArrayDataPointer = type { ptr, ptr, i64 }
%class.VoipCallsDialog = type { %class.WiresharkDialog.base, i8, ptr, ptr, ptr, ptr, ptr, %struct._voip_calls_tapinfo, ptr, ptr, ptr, ptr, ptr, i8, ptr }
%class.WiresharkDialog.base = type <{ %class.GeometryStateDialog, ptr, i8, [7 x i8], %class.QString, %class.QList, i32, i8 }>
%class.GeometryStateDialog = type { %class.QDialog, %class.QString }
%class.QDialog = type { %class.QWidget }
%class.QWidget = type { %class.QObject, %class.QPaintDevice.base, ptr }
%class.QObject = type { ptr, %class.QScopedPointer }
%class.QScopedPointer = type { ptr }
%class.QPaintDevice.base = type <{ ptr, i16 }>
%class.QList = type { %struct.QArrayDataPointer.0 }
%struct.QArrayDataPointer.0 = type { ptr, ptr, i64 }
%struct._voip_calls_tapinfo = type { ptr, ptr, ptr, ptr, i32, ptr, [1 x ptr], i32, ptr, i32, i32, i32, ptr, ptr, i32, ptr, i32, i8, i32, ptr, i32, i32, i32, i8, i32, ptr, ptr, ptr, i8, i32, i32, i32, i16, i32, i32, i32, i32, i32, i32, i32, i32, i32 }

; Function Attrs: mustprogress uwtable
define void @_ZN15VoipCallsDialog18captureFileClosingEv(ptr noundef nonnull align 8 dereferenceable(480) %0) unnamed_addr #0 align 2 {
  %2 = alloca ptr, align 8
  store ptr %0, ptr %2, align 8
  %3 = load ptr, ptr %2, align 8
  %4 = getelementptr inbounds %class.VoipCallsDialog, ptr %3, i32 0, i32 4
  %5 = load ptr, ptr %4, align 8
  %6 = load ptr, ptr %5, align 8
  %7 = getelementptr inbounds ptr, ptr %6, i64 49
  %8 = load ptr, ptr %7, align 8
  call void %8(ptr noundef nonnull align 8 dereferenceable(32) %5, ptr noundef null)
  %9 = getelementptr inbounds %class.VoipCallsDialog, ptr %3, i32 0, i32 13
  %10 = load i8, ptr %9, align 8
  %11 = trunc i8 %10 to i1
  br i1 %11, label %15, label %12

12:                                               ; preds = %1
  %13 = getelementptr inbounds %class.VoipCallsDialog, ptr %3, i32 0, i32 7
  call void @voip_calls_remove_all_tap_listeners(ptr noundef %13)
  %14 = getelementptr inbounds %class.VoipCallsDialog, ptr %3, i32 0, i32 13
  store i8 1, ptr %14, align 8
  br label %15

15:                                               ; preds = %12, %1
  %16 = getelementptr inbounds %class.VoipCallsDialog, ptr %3, i32 0, i32 7
  %17 = getelementptr inbounds %struct._voip_calls_tapinfo, ptr %16, i32 0, i32 13
  store ptr null, ptr %17, align 8
  call void @_ZN15WiresharkDialog18captureFileClosingEv(ptr noundef nonnull align 8 dereferenceable(133) %3)
  ret void
}