; Function Attrs: mustprogress uwtable
define void @_ZN15VoipCallsDialog18captureFileClosingEv(ptr noundef nonnull align 8 dereferenceable(480) %0) unnamed_addr #0 align 2 {
  %2 = getelementptr inbounds i8, ptr %0, i64 152
  %3 = load ptr, ptr %2, align 8
  %4 = load ptr, ptr %3, align 8
  %5 = getelementptr inbounds i8, ptr %4, i64 392
  %6 = load ptr, ptr %5, align 8
  tail call void %6(ptr noundef nonnull align 8 dereferenceable(32) %3, ptr noundef null)
  %7 = getelementptr inbounds i8, ptr %0, i64 464
  %8 = load i8, ptr %7, align 8
  %9 = and i8 %8, 1
  %.not = icmp eq i8 %9, 0
  br i1 %.not, label %10, label %12

10:                                               ; preds = %1
  %11 = getelementptr inbounds i8, ptr %0, i64 176
  tail call void @voip_calls_remove_all_tap_listeners(ptr noundef nonnull %11)
  store i8 1, ptr %7, align 8
  br label %12

12:                                               ; preds = %10, %1
  %13 = getelementptr inbounds i8, ptr %0, i64 272
  store ptr null, ptr %13, align 8
  tail call void @_ZN15WiresharkDialog18captureFileClosingEv(ptr noundef nonnull align 8 dereferenceable(133) %0)
  ret void
}